
ddr31.elf:     file format elf32-littlearm


Disassembly of section .text:

00000000 <main>:
   0:	e59f0174 	ldr	r0, [pc, #372]	; 17c <DDRBase>
   4:	e280400c 	add	r4, r0, #12
   8:	e3a010ff 	mov	r1, #255	; 0xff
   c:	e3a03055 	mov	r3, #85	; 0x55
  10:	e5801000 	str	r1, [r0]
  14:	e5843000 	str	r3, [r4]
  18:	e5902000 	ldr	r2, [r0]
  1c:	e5945000 	ldr	r5, [r4]
  20:	e1510002 	cmp	r1, r2
  24:	13a0a00a 	movne	sl, #10
  28:	1a000049 	bne	154 <testfail>
  2c:	e1530005 	cmp	r3, r5
  30:	13a0a00f 	movne	sl, #15
  34:	1a000046 	bne	154 <testfail>
  38:	e59f0134 	ldr	r0, [pc, #308]	; 174 <AdrRanNum>
  3c:	e59f9134 	ldr	r9, [pc, #308]	; 178 <PointerBase>
  40:	e59fa134 	ldr	sl, [pc, #308]	; 17c <DDRBase>
  44:	e3a0b040 	mov	fp, #64	; 0x40
  48:	e89001fe 	ldm	r0, {r1, r2, r3, r4, r5, r6, r7, r8}
  4c:	e08a1101 	add	r1, sl, r1, lsl #2
  50:	e0812102 	add	r2, r1, r2, lsl #2
  54:	e0823103 	add	r3, r2, r3, lsl #2
  58:	e0834104 	add	r4, r3, r4, lsl #2
  5c:	e0845105 	add	r5, r4, r5, lsl #2
  60:	e0856106 	add	r6, r5, r6, lsl #2
  64:	e0867107 	add	r7, r6, r7, lsl #2
  68:	e0878108 	add	r8, r7, r8, lsl #2
  6c:	e88901fe 	stm	r9, {r1, r2, r3, r4, r5, r6, r7, r8}
  70:	e2899020 	add	r9, r9, #32
  74:	e1a0a008 	mov	sl, r8
  78:	e25bb001 	subs	fp, fp, #1
  7c:	1afffff1 	bne	48 <main+0x48>
  80:	e59f90f0 	ldr	r9, [pc, #240]	; 178 <PointerBase>
  84:	e3a0b040 	mov	fp, #64	; 0x40
  88:	e89901fe 	ldm	r9, {r1, r2, r3, r4, r5, r6, r7, r8}
  8c:	e5811000 	str	r1, [r1]
  90:	e5822000 	str	r2, [r2]
  94:	e5833000 	str	r3, [r3]
  98:	e5844000 	str	r4, [r4]
  9c:	e5855000 	str	r5, [r5]
  a0:	e5866000 	str	r6, [r6]
  a4:	e5877000 	str	r7, [r7]
  a8:	e5888000 	str	r8, [r8]
  ac:	e2899020 	add	r9, r9, #32
  b0:	e25bb001 	subs	fp, fp, #1
  b4:	1afffff3 	bne	88 <main+0x88>
  b8:	e59f90b8 	ldr	r9, [pc, #184]	; 178 <PointerBase>
  bc:	e3a0b040 	mov	fp, #64	; 0x40
  c0:	e89901fe 	ldm	r9, {r1, r2, r3, r4, r5, r6, r7, r8}
  c4:	e591c000 	ldr	ip, [r1]
  c8:	e15c0001 	cmp	ip, r1
  cc:	13a0a00a 	movne	sl, #10
  d0:	1a00001f 	bne	154 <testfail>
  d4:	e592c000 	ldr	ip, [r2]
  d8:	e15c0002 	cmp	ip, r2
  dc:	13a0a00a 	movne	sl, #10
  e0:	1a00001b 	bne	154 <testfail>
  e4:	e593c000 	ldr	ip, [r3]
  e8:	e15c0003 	cmp	ip, r3
  ec:	13a0a00a 	movne	sl, #10
  f0:	1a000017 	bne	154 <testfail>
  f4:	e594c000 	ldr	ip, [r4]
  f8:	e15c0004 	cmp	ip, r4
  fc:	13a0a00a 	movne	sl, #10
 100:	1a000013 	bne	154 <testfail>
 104:	e595c000 	ldr	ip, [r5]
 108:	e15c0005 	cmp	ip, r5
 10c:	13a0a00a 	movne	sl, #10
 110:	1a00000f 	bne	154 <testfail>
 114:	e596c000 	ldr	ip, [r6]
 118:	e15c0006 	cmp	ip, r6
 11c:	13a0a00a 	movne	sl, #10
 120:	1a00000b 	bne	154 <testfail>
 124:	e597c000 	ldr	ip, [r7]
 128:	e15c0007 	cmp	ip, r7
 12c:	13a0a00a 	movne	sl, #10
 130:	1a000007 	bne	154 <testfail>
 134:	e598c000 	ldr	ip, [r8]
 138:	e15c0008 	cmp	ip, r8
 13c:	13a0a00a 	movne	sl, #10
 140:	1a000003 	bne	154 <testfail>
 144:	e2899020 	add	r9, r9, #32
 148:	e25bb001 	subs	fp, fp, #1
 14c:	1affffdb 	bne	c0 <main+0xc0>
 150:	ea000002 	b	160 <testpass>

00000154 <testfail>:
 154:	e59fb014 	ldr	fp, [pc, #20]	; 170 <AdrTestStatus>
 158:	e58ba000 	str	sl, [fp]
 15c:	eafffffc 	b	154 <testfail>

00000160 <testpass>:
 160:	e59fb008 	ldr	fp, [pc, #8]	; 170 <AdrTestStatus>
 164:	e3a0a011 	mov	sl, #17
 168:	e58ba000 	str	sl, [fp]
 16c:	eafffffb 	b	160 <testpass>

00000170 <AdrTestStatus>:
 170:	f0000000 	.word	0xf0000000

00000174 <AdrRanNum>:
 174:	f0000100 	.word	0xf0000100

00000178 <PointerBase>:
 178:	00001000 	.word	0x00001000

0000017c <DDRBase>:
 17c:	00020000 	.word	0x00020000
