
irq.elf:     file format elf32-littlearm


Disassembly of section .text:

00000000 <main>:
   0:	ea000006 	b	20 <start>
   4:	ea00004d 	b	140 <testfail>
   8:	ea00004c 	b	140 <testfail>
   c:	ea00004b 	b	140 <testfail>
  10:	ea00004a 	b	140 <testfail>
  14:	ea000049 	b	140 <testfail>
  18:	ea000041 	b	124 <service_irq>
  1c:	ea000047 	b	140 <testfail>

00000020 <start>:
  20:	e59fd144 	ldr	sp, [pc, #324]	; 16c <AdrSVCStack>
  24:	e3a00002 	mov	r0, #2
  28:	e13ff000 	teq	pc, r0
  2c:	e59fd140 	ldr	sp, [pc, #320]	; 174 <AdrIRQStack>
  30:	e3a00000 	mov	r0, #0
  34:	e13ff000 	teq	pc, r0
  38:	e59fd130 	ldr	sp, [pc, #304]	; 170 <AdrUSRStack>
  3c:	e59f411c 	ldr	r4, [pc, #284]	; 160 <AdrRanNum>
  40:	e5945000 	ldr	r5, [r4]
  44:	e205501c 	and	r5, r5, #28
  48:	e2855005 	add	r5, r5, #5
  4c:	e59f6110 	ldr	r6, [pc, #272]	; 164 <AdrIRQTimer>
  50:	e5865000 	str	r5, [r6]
  54:	e3a02000 	mov	r2, #0

00000058 <loop>:
  58:	e3a03004 	mov	r3, #4
  5c:	e2533004 	subs	r3, r3, #4
  60:	e3a01001 	mov	r1, #1
  64:	e2811002 	add	r1, r1, #2
  68:	e2811003 	add	r1, r1, #3
  6c:	e2811004 	add	r1, r1, #4
  70:	02811005 	addeq	r1, r1, #5
  74:	e2811006 	add	r1, r1, #6
  78:	e2811007 	add	r1, r1, #7
  7c:	02811008 	addeq	r1, r1, #8
  80:	e2811009 	add	r1, r1, #9
  84:	e281100a 	add	r1, r1, #10
  88:	e281100b 	add	r1, r1, #11
  8c:	e281100c 	add	r1, r1, #12
  90:	e3a0700d 	mov	r7, #13
  94:	e3a0800e 	mov	r8, #14
  98:	e3a0900f 	mov	r9, #15
  9c:	e92d0380 	push	{r7, r8, r9}
  a0:	e3a07000 	mov	r7, #0
  a4:	e3a08000 	mov	r8, #0
  a8:	e3a09000 	mov	r9, #0
  ac:	e8bd0380 	pop	{r7, r8, r9}
  b0:	e0811007 	add	r1, r1, r7
  b4:	e0811008 	add	r1, r1, r8
  b8:	e0811009 	add	r1, r1, r9
  bc:	e2811010 	add	r1, r1, #16
  c0:	e2811011 	add	r1, r1, #17
  c4:	e2811012 	add	r1, r1, #18
  c8:	e2811013 	add	r1, r1, #19
  cc:	e2811014 	add	r1, r1, #20
  d0:	e2811015 	add	r1, r1, #21
  d4:	e2811016 	add	r1, r1, #22
  d8:	e2811017 	add	r1, r1, #23
  dc:	e2811018 	add	r1, r1, #24
  e0:	e2811019 	add	r1, r1, #25
  e4:	e281101a 	add	r1, r1, #26
  e8:	e281101b 	add	r1, r1, #27
  ec:	e281101c 	add	r1, r1, #28
  f0:	e281101d 	add	r1, r1, #29
  f4:	e281101e 	add	r1, r1, #30
  f8:	e281102f 	add	r1, r1, #47	; 0x2f
  fc:	e3510c02 	cmp	r1, #512	; 0x200
 100:	11a0a002 	movne	sl, r2
 104:	1a00000d 	bne	140 <testfail>
 108:	e3520050 	cmp	r2, #80	; 0x50
 10c:	0a00000e 	beq	14c <testpass>
 110:	e2822001 	add	r2, r2, #1
 114:	eaffffcf 	b	58 <loop>
 118:	ea000008 	b	140 <testfail>
 11c:	ea000007 	b	140 <testfail>
 120:	ea000006 	b	140 <testfail>

00000124 <service_irq>:
 124:	e52de004 	push	{lr}		; (str lr, [sp, #-4]!)
 128:	e5945000 	ldr	r5, [r4]
 12c:	e205507f 	and	r5, r5, #127	; 0x7f
 130:	e285501e 	add	r5, r5, #30
 134:	e5865000 	str	r5, [r6]
 138:	e49de004 	pop	{lr}		; (ldr lr, [sp], #4)
 13c:	e25ef004 	subs	pc, lr, #4

00000140 <testfail>:
 140:	e59fb014 	ldr	fp, [pc, #20]	; 15c <AdrTestStatus>
 144:	e58ba000 	str	sl, [fp]
 148:	eafffffc 	b	140 <testfail>

0000014c <testpass>:
 14c:	e59fb008 	ldr	fp, [pc, #8]	; 15c <AdrTestStatus>
 150:	e3a0a011 	mov	sl, #17
 154:	e58ba000 	str	sl, [fp]
 158:	eafffffb 	b	14c <testpass>

0000015c <AdrTestStatus>:
 15c:	f0000000 	.word	0xf0000000

00000160 <AdrRanNum>:
 160:	f0000100 	.word	0xf0000100

00000164 <AdrIRQTimer>:
 164:	f0000008 	.word	0xf0000008

00000168 <AdrText1>:
 168:	00000178 	.word	0x00000178

0000016c <AdrSVCStack>:
 16c:	00000800 	.word	0x00000800

00000170 <AdrUSRStack>:
 170:	00001000 	.word	0x00001000

00000174 <AdrIRQStack>:
 174:	00001800 	.word	0x00001800

00000178 <Text1>:
 178:	65746e49 	.word	0x65746e49
 17c:	70757272 	.word	0x70757272
 180:	000a2174 	.word	0x000a2174
